target datalayout = "e-m:e-p270:32:32-p271:32:32-p272:64:64-i64:64-i128:128-f80:128-n8:16:32:64-S128"
target triple = "x86_64-pc-linux-gnu"

@.str = private unnamed_addr constant [1 x i8] zeroinitializer, align 1

; Function Attrs: nounwind uwtable
define ptr @lv_fs_get_ext(ptr noundef %0) #0 {
  %2 = alloca ptr, align 8
  %3 = alloca ptr, align 8
  %4 = alloca i64, align 8
  %5 = alloca i32, align 4
  store ptr %0, ptr %3, align 8, !tbaa !6
  call void @llvm.lifetime.start.p0(i64 8, ptr %4) #4
  %6 = load ptr, ptr %3, align 8, !tbaa !6
  %7 = call i64 @lv_strlen(ptr noundef %6)
  store i64 %7, ptr %4, align 8, !tbaa !45
  br label %8

8:                                                ; preds = %40, %1
  %9 = load i64, ptr %4, align 8, !tbaa !45
  %10 = icmp ugt i64 %9, 0
  br i1 %10, label %11, label %43

11:                                               ; preds = %8
  %12 = load ptr, ptr %3, align 8, !tbaa !6
  %13 = load i64, ptr %4, align 8, !tbaa !45
  %14 = getelementptr inbounds nuw i8, ptr %12, i64 %13
  %15 = load i8, ptr %14, align 1, !tbaa !3
  %16 = sext i8 %15 to i32
  %17 = icmp eq i32 %16, 46
  br i1 %17, label %18, label %23

18:                                               ; preds = %11
  %19 = load ptr, ptr %3, align 8, !tbaa !6
  %20 = load i64, ptr %4, align 8, !tbaa !45
  %21 = add i64 %20, 1
  %22 = getelementptr inbounds nuw i8, ptr %19, i64 %21
  store ptr %22, ptr %2, align 8
  store i32 1, ptr %5, align 4
  br label %44

23:                                               ; preds = %11
  %24 = load ptr, ptr %3, align 8, !tbaa !6
  %25 = load i64, ptr %4, align 8, !tbaa !45
  %26 = getelementptr inbounds nuw i8, ptr %24, i64 %25
  %27 = load i8, ptr %26, align 1, !tbaa !3
  %28 = sext i8 %27 to i32
  %29 = icmp eq i32 %28, 47
  br i1 %29, label %37, label %30

30:                                               ; preds = %23
  %31 = load ptr, ptr %3, align 8, !tbaa !6
  %32 = load i64, ptr %4, align 8, !tbaa !45
  %33 = getelementptr inbounds nuw i8, ptr %31, i64 %32
  %34 = load i8, ptr %33, align 1, !tbaa !3
  %35 = sext i8 %34 to i32
  %36 = icmp eq i32 %35, 92
  br i1 %36, label %37, label %38

37:                                               ; preds = %30, %23
  store ptr @.str, ptr %2, align 8
  store i32 1, ptr %5, align 4
  br label %44

38:                                               ; preds = %30
  br label %39

39:                                               ; preds = %38
  br label %40

40:                                               ; preds = %39
  %41 = load i64, ptr %4, align 8, !tbaa !45
  %42 = add i64 %41, -1
  store i64 %42, ptr %4, align 8, !tbaa !45
  br label %8, !llvm.loop !48

43:                                               ; preds = %8
  store ptr @.str, ptr %2, align 8
  store i32 1, ptr %5, align 4
  br label %44

44:                                               ; preds = %43, %37, %18
  call void @llvm.lifetime.end.p0(i64 8, ptr %4) #4
  %45 = load ptr, ptr %2, align 8
  ret ptr %45
}