; Function Attrs: nounwind uwtable
define ptr @lv_fs_get_ext(ptr noundef %0) local_unnamed_addr #0 {
  %2 = tail call i64 @lv_strlen(ptr noundef %0) #6
  %.not13 = icmp eq i64 %2, 0
  br i1 %.not13, label %.loopexit, label %.lr.ph

.lr.ph:                                           ; preds = %1, %8
  %.014 = phi i64 [ %9, %8 ], [ %2, %1 ]
  %3 = getelementptr inbounds nuw i8, ptr %0, i64 %.014
  %4 = load i8, ptr %3, align 1, !tbaa !13
  switch i8 %4, label %8 [
    i8 46, label %5
    i8 47, label %.loopexit
    i8 92, label %.loopexit
  ]

5:                                                ; preds = %.lr.ph
  %6 = getelementptr inbounds nuw i8, ptr %0, i64 %.014
  %7 = getelementptr i8, ptr %6, i64 1
  br label %.loopexit

8:                                                ; preds = %.lr.ph
  %9 = add i64 %.014, -1
  %.not = icmp eq i64 %9, 0
  br i1 %.not, label %.loopexit, label %.lr.ph, !llvm.loop !41

.loopexit:                                        ; preds = %.lr.ph, %.lr.ph, %8, %1, %5
  %.011 = phi ptr [ %7, %5 ], [ @.str, %1 ], [ @.str, %8 ], [ @.str, %.lr.ph ], [ @.str, %.lr.ph ]
  ret ptr %.011
}